target datalayout = "e-m:e-p270:32:32-p271:32:32-p272:64:64-i64:64-i128:128-f80:128-n8:16:32:64-S128"
target triple = "x86_64-pc-linux-gnu"

%struct.H5O_obj_class_t = type { i32, ptr, ptr, ptr, ptr, ptr, ptr, ptr, ptr, ptr }
%struct.H5O_loc_t = type { ptr, i64, i8 }
%struct.H5G_loc_t = type { ptr, ptr }
%struct.H5G_name_t = type { ptr, ptr, i32 }

@.str.4 = private unnamed_addr constant [100 x i8] c"generated/home/dtcxzyw/WorkSpace/Projects/compilers/llvm-opt-benchmark/bench/hdf5/hdf5/src/H5Oint.c\00", align 1
@H5E_OHDR_g = external global i64, align 8
@H5E_CANTGET_g = external global i64, align 8
@H5E_CANTOPENOBJ_g = external global i64, align 8
@.str.24 = private unnamed_addr constant [22 x i8] c"unable to open object\00", align 1
@__func__.H5O__open_by_addr = private unnamed_addr constant [18 x i8] c"H5O__open_by_addr\00", align 1
@__func__.H5O_open_by_loc = private unnamed_addr constant [16 x i8] c"H5O_open_by_loc\00", align 1
@.str.27 = private unnamed_addr constant [33 x i8] c"unable to determine object class\00", align 1

; Function Attrs: nounwind uwtable
define ptr @H5O_open_by_loc(ptr noundef %0, ptr noundef %1) #0 {
  %3 = alloca ptr, align 8
  %4 = alloca ptr, align 8
  %5 = alloca ptr, align 8
  %6 = alloca ptr, align 8
  %7 = alloca i8, align 1
  store ptr %0, ptr %3, align 8
  store ptr %1, ptr %4, align 8
  store ptr null, ptr %6, align 8
  store i8 0, ptr %7, align 1
  %8 = load ptr, ptr %3, align 8
  %9 = getelementptr inbounds %struct.H5G_loc_t, ptr %8, i32 0, i32 0
  %10 = load ptr, ptr %9, align 8
  %11 = call ptr @H5O__obj_class(ptr noundef %10)
  store ptr %11, ptr %5, align 8
  %12 = icmp eq ptr null, %11
  br i1 %12, label %13, label %28

13:                                               ; preds = %2
  br label %14

14:                                               ; preds = %13
  br label %15

15:                                               ; preds = %14
  br label %16

16:                                               ; preds = %15
  %17 = load i64, ptr @H5E_OHDR_g, align 8
  %18 = load i64, ptr @H5E_CANTGET_g, align 8
  %19 = call i32 (ptr, ptr, i32, i64, i64, ptr, ...) @H5E_printf_stack(ptr noundef @.str.4, ptr noundef @__func__.H5O_open_by_loc, i32 noundef 718, i64 noundef %17, i64 noundef %18, ptr noundef @.str.27)
  br label %20

20:                                               ; preds = %16
  store i8 1, ptr %7, align 1
  %21 = load i8, ptr %7, align 1
  %22 = trunc i8 %21 to i1
  %23 = zext i1 %22 to i8
  store i8 %23, ptr %7, align 1
  br label %24

24:                                               ; preds = %20
  br label %25

25:                                               ; preds = %24
  store ptr null, ptr %6, align 8
  br label %52

26:                                               ; No predecessors!
  br label %27

27:                                               ; preds = %26
  br label %28

28:                                               ; preds = %27, %2
  %29 = load ptr, ptr %5, align 8
  %30 = getelementptr inbounds %struct.H5O_obj_class_t, ptr %29, i32 0, i32 5
  %31 = load ptr, ptr %30, align 8
  %32 = load ptr, ptr %3, align 8
  %33 = load ptr, ptr %4, align 8
  %34 = call ptr %31(ptr noundef %32, ptr noundef %33)
  store ptr %34, ptr %6, align 8
  %35 = icmp eq ptr null, %34
  br i1 %35, label %36, label %51

36:                                               ; preds = %28
  br label %37

37:                                               ; preds = %36
  br label %38

38:                                               ; preds = %37
  br label %39

39:                                               ; preds = %38
  %40 = load i64, ptr @H5E_OHDR_g, align 8
  %41 = load i64, ptr @H5E_CANTOPENOBJ_g, align 8
  %42 = call i32 (ptr, ptr, i32, i64, i64, ptr, ...) @H5E_printf_stack(ptr noundef @.str.4, ptr noundef @__func__.H5O_open_by_loc, i32 noundef 723, i64 noundef %40, i64 noundef %41, ptr noundef @.str.24)
  br label %43

43:                                               ; preds = %39
  store i8 1, ptr %7, align 1
  %44 = load i8, ptr %7, align 1
  %45 = trunc i8 %44 to i1
  %46 = zext i1 %45 to i8
  store i8 %46, ptr %7, align 1
  br label %47

47:                                               ; preds = %43
  br label %48

48:                                               ; preds = %47
  store ptr null, ptr %6, align 8
  br label %52

49:                                               ; No predecessors!
  br label %50

50:                                               ; preds = %49
  br label %51

51:                                               ; preds = %50, %28
  br label %52

52:                                               ; preds = %51, %48, %25
  %53 = load ptr, ptr %6, align 8
  ret ptr %53
}

; Function Attrs: nounwind uwtable
define ptr @H5O__open_by_addr(ptr noundef %0, i64 noundef %1, ptr noundef %2) #0 {
  %4 = alloca ptr, align 8
  %5 = alloca i64, align 8
  %6 = alloca ptr, align 8
  %7 = alloca %struct.H5G_loc_t, align 8
  %8 = alloca %struct.H5G_name_t, align 8
  %9 = alloca %struct.H5O_loc_t, align 8
  %10 = alloca ptr, align 8
  %11 = alloca i8, align 1
  store ptr %0, ptr %4, align 8
  store i64 %1, ptr %5, align 8
  store ptr %2, ptr %6, align 8
  store ptr null, ptr %10, align 8
  store i8 0, ptr %11, align 1
  %12 = getelementptr inbounds %struct.H5G_loc_t, ptr %7, i32 0, i32 0
  store ptr %9, ptr %12, align 8
  %13 = getelementptr inbounds %struct.H5G_loc_t, ptr %7, i32 0, i32 1
  store ptr %8, ptr %13, align 8
  %14 = call i32 @H5G_loc_reset(ptr noundef %7)
  %15 = load i64, ptr %5, align 8
  %16 = getelementptr inbounds %struct.H5G_loc_t, ptr %7, i32 0, i32 0
  %17 = load ptr, ptr %16, align 8
  %18 = getelementptr inbounds %struct.H5O_loc_t, ptr %17, i32 0, i32 1
  store i64 %15, ptr %18, align 8
  %19 = load ptr, ptr %4, align 8
  %20 = getelementptr inbounds %struct.H5G_loc_t, ptr %19, i32 0, i32 0
  %21 = load ptr, ptr %20, align 8
  %22 = getelementptr inbounds %struct.H5O_loc_t, ptr %21, i32 0, i32 0
  %23 = load ptr, ptr %22, align 8
  %24 = getelementptr inbounds %struct.H5G_loc_t, ptr %7, i32 0, i32 0
  %25 = load ptr, ptr %24, align 8
  %26 = getelementptr inbounds %struct.H5O_loc_t, ptr %25, i32 0, i32 0
  store ptr %23, ptr %26, align 8
  %27 = getelementptr inbounds %struct.H5G_loc_t, ptr %7, i32 0, i32 1
  %28 = load ptr, ptr %27, align 8
  %29 = call i32 @H5G_name_reset(ptr noundef %28)
  %30 = load ptr, ptr %6, align 8
  %31 = call ptr @H5O_open_by_loc(ptr noundef %7, ptr noundef %30)
  store ptr %31, ptr %10, align 8
  %32 = icmp eq ptr null, %31
  br i1 %32, label %33, label %48

33:                                               ; preds = %3
  br label %34

34:                                               ; preds = %33
  br label %35

35:                                               ; preds = %34
  br label %36

36:                                               ; preds = %35
  %37 = load i64, ptr @H5E_OHDR_g, align 8
  %38 = load i64, ptr @H5E_CANTOPENOBJ_g, align 8
  %39 = call i32 (ptr, ptr, i32, i64, i64, ptr, ...) @H5E_printf_stack(ptr noundef @.str.4, ptr noundef @__func__.H5O__open_by_addr, i32 noundef 690, i64 noundef %37, i64 noundef %38, ptr noundef @.str.24)
  br label %40

40:                                               ; preds = %36
  store i8 1, ptr %11, align 1
  %41 = load i8, ptr %11, align 1
  %42 = trunc i8 %41 to i1
  %43 = zext i1 %42 to i8
  store i8 %43, ptr %11, align 1
  br label %44

44:                                               ; preds = %40
  br label %45

45:                                               ; preds = %44
  store ptr null, ptr %10, align 8
  br label %49

46:                                               ; No predecessors!
  br label %47

47:                                               ; preds = %46
  br label %48

48:                                               ; preds = %47, %3
  br label %49

49:                                               ; preds = %48, %45
  %50 = load ptr, ptr %10, align 8
  ret ptr %50
}