; Function Attrs: nounwind uwtable
define ptr @H5O__open_by_addr(ptr nocapture noundef readonly %0, i64 noundef %1, ptr noundef %2) local_unnamed_addr #1 {
  %4 = alloca %struct.H5G_loc_t, align 8
  %5 = alloca %struct.H5G_name_t, align 8
  %6 = alloca %struct.H5O_loc_t, align 8
  store ptr %6, ptr %4, align 8
  %7 = getelementptr inbounds i8, ptr %4, i64 8
  store ptr %5, ptr %7, align 8
  %8 = call i32 @H5G_loc_reset(ptr noundef nonnull %4) #11
  %9 = load ptr, ptr %4, align 8
  %10 = getelementptr inbounds i8, ptr %9, i64 8
  store i64 %1, ptr %10, align 8
  %11 = load ptr, ptr %0, align 8
  %12 = load ptr, ptr %11, align 8
  store ptr %12, ptr %9, align 8
  %13 = load ptr, ptr %7, align 8
  %14 = call i32 @H5G_name_reset(ptr noundef %13) #11
  %15 = load ptr, ptr %4, align 8
  %16 = call ptr @H5O__obj_class(ptr noundef %15)
  %17 = icmp eq ptr %16, null
  br i1 %17, label %18, label %22

18:                                               ; preds = %3
  %19 = load i64, ptr @H5E_OHDR_g, align 8
  %20 = load i64, ptr @H5E_CANTGET_g, align 8
  %21 = call i32 (ptr, ptr, i32, i64, i64, ptr, ...) @H5E_printf_stack(ptr noundef nonnull @.str.4, ptr noundef nonnull @__func__.H5O_open_by_loc, i32 noundef 718, i64 noundef %19, i64 noundef %20, ptr noundef nonnull @.str.27) #11
  br label %31

22:                                               ; preds = %3
  %23 = getelementptr inbounds i8, ptr %16, i64 40
  %24 = load ptr, ptr %23, align 8
  %25 = call ptr %24(ptr noundef nonnull %4, ptr noundef %2) #11
  %26 = icmp eq ptr %25, null
  br i1 %26, label %27, label %H5O_open_by_loc.exit

27:                                               ; preds = %22
  %28 = load i64, ptr @H5E_OHDR_g, align 8
  %29 = load i64, ptr @H5E_CANTOPENOBJ_g, align 8
  %30 = call i32 (ptr, ptr, i32, i64, i64, ptr, ...) @H5E_printf_stack(ptr noundef nonnull @.str.4, ptr noundef nonnull @__func__.H5O_open_by_loc, i32 noundef 723, i64 noundef %28, i64 noundef %29, ptr noundef nonnull @.str.24) #11
  br label %31

31:                                               ; preds = %18, %27
  %32 = load i64, ptr @H5E_OHDR_g, align 8
  %33 = load i64, ptr @H5E_CANTOPENOBJ_g, align 8
  %34 = call i32 (ptr, ptr, i32, i64, i64, ptr, ...) @H5E_printf_stack(ptr noundef nonnull @.str.4, ptr noundef nonnull @__func__.H5O__open_by_addr, i32 noundef 690, i64 noundef %32, i64 noundef %33, ptr noundef nonnull @.str.24) #11
  br label %H5O_open_by_loc.exit

H5O_open_by_loc.exit:                             ; preds = %22, %31
  %.0 = phi ptr [ null, %31 ], [ %25, %22 ]
  ret ptr %.0
}